; Function Attrs: inlinehint nounwind uwtable
define internal fastcc void @pmix_bfrops_base_tma_endpoint_free(ptr noundef %0, i64 noundef %1, ptr noundef %2) unnamed_addr #4 {
  %.not = icmp eq ptr %0, null
  br i1 %.not, label %pmix_tma_free.exit, label %.preheader

.preheader:                                       ; preds = %3
  %.not26 = icmp eq i64 %1, 0
  br i1 %.not26, label %._crit_edge, label %.lr.ph

.lr.ph:                                           ; preds = %.preheader
  %.not.i.i = icmp eq ptr %2, null
  %4 = getelementptr inbounds nuw i8, ptr %2, i64 40
  br i1 %.not.i.i, label %.lr.ph.split.us, label %.lr.ph.split.split.split

.lr.ph.split.us:                                  ; preds = %.lr.ph, %pmix_bfrops_base_tma_endpoint_destruct.exit.us
  %.010.us = phi i64 [ %15, %pmix_bfrops_base_tma_endpoint_destruct.exit.us ], [ 0, %.lr.ph ]
  %5 = getelementptr inbounds nuw %struct.pmix_endpoint, ptr %0, i64 %.010.us
  %6 = load ptr, ptr %5, align 8, !tbaa !258
  %.not.i9.us = icmp eq ptr %6, null
  br i1 %.not.i9.us, label %pmix_tma_free.exit.i.us, label %pmix_tma_free.exit.thread.i.us

pmix_tma_free.exit.thread.i.us:                   ; preds = %.lr.ph.split.us
  tail call void @free(ptr noundef nonnull %6) #15
  %7 = getelementptr inbounds nuw i8, ptr %5, i64 8
  %8 = load ptr, ptr %7, align 8, !tbaa !260
  %.not1117.i.us = icmp eq ptr %8, null
  br i1 %.not1117.i.us, label %pmix_tma_free.exit14.i.us, label %.thread.i.us

pmix_tma_free.exit.i.us:                          ; preds = %.lr.ph.split.us
  %9 = getelementptr inbounds nuw i8, ptr %5, i64 8
  %10 = load ptr, ptr %9, align 8, !tbaa !260
  %.not11.i.us = icmp eq ptr %10, null
  br i1 %.not11.i.us, label %pmix_tma_free.exit14.i.us, label %.thread.i.us

.thread.i.us:                                     ; preds = %pmix_tma_free.exit.i.us, %pmix_tma_free.exit.thread.i.us
  %11 = phi ptr [ %8, %pmix_tma_free.exit.thread.i.us ], [ %10, %pmix_tma_free.exit.i.us ]
  tail call void @free(ptr noundef nonnull %11) #15
  br label %pmix_tma_free.exit14.i.us

pmix_tma_free.exit14.i.us:                        ; preds = %.thread.i.us, %pmix_tma_free.exit.i.us, %pmix_tma_free.exit.thread.i.us
  %12 = getelementptr inbounds nuw i8, ptr %5, i64 16
  %13 = load ptr, ptr %12, align 8, !tbaa !261
  %.not12.i.us = icmp eq ptr %13, null
  br i1 %.not12.i.us, label %pmix_bfrops_base_tma_endpoint_destruct.exit.us, label %14

14:                                               ; preds = %pmix_tma_free.exit14.i.us
  tail call void @free(ptr noundef nonnull %13) #15
  br label %pmix_bfrops_base_tma_endpoint_destruct.exit.us

pmix_bfrops_base_tma_endpoint_destruct.exit.us:   ; preds = %14, %pmix_tma_free.exit14.i.us
  %15 = add nuw i64 %.010.us, 1
  %exitcond28.not = icmp eq i64 %15, %1
  br i1 %exitcond28.not, label %._crit_edge, label %.lr.ph.split.us, !llvm.loop !262

._crit_edge:                                      ; preds = %pmix_bfrops_base_tma_endpoint_destruct.exit, %pmix_bfrops_base_tma_endpoint_destruct.exit.us, %.preheader
  %.not.i = icmp eq ptr %2, null
  br i1 %.not.i, label %19, label %16

16:                                               ; preds = %._crit_edge
  %17 = getelementptr inbounds nuw i8, ptr %2, i64 40
  %18 = load ptr, ptr %17, align 8, !tbaa !77
  tail call void %18(ptr noundef nonnull %2, ptr noundef nonnull %0) #15
  br label %pmix_tma_free.exit

19:                                               ; preds = %._crit_edge
  tail call void @free(ptr noundef nonnull %0) #15
  br label %pmix_tma_free.exit

.lr.ph.split.split.split:                         ; preds = %.lr.ph, %pmix_bfrops_base_tma_endpoint_destruct.exit
  %.010 = phi i64 [ %32, %pmix_bfrops_base_tma_endpoint_destruct.exit ], [ 0, %.lr.ph ]
  %20 = getelementptr inbounds nuw %struct.pmix_endpoint, ptr %0, i64 %.010
  %21 = load ptr, ptr %20, align 8, !tbaa !258
  %.not.i9 = icmp eq ptr %21, null
  br i1 %.not.i9, label %pmix_tma_free.exit.i, label %22

22:                                               ; preds = %.lr.ph.split.split.split
  %23 = load ptr, ptr %4, align 8, !tbaa !77
  tail call void %23(ptr noundef nonnull %2, ptr noundef nonnull %21) #15
  br label %pmix_tma_free.exit.i

pmix_tma_free.exit.i:                             ; preds = %22, %.lr.ph.split.split.split
  %24 = getelementptr inbounds nuw i8, ptr %20, i64 8
  %25 = load ptr, ptr %24, align 8, !tbaa !260
  %.not11.i = icmp eq ptr %25, null
  br i1 %.not11.i, label %pmix_tma_free.exit14.i, label %26

26:                                               ; preds = %pmix_tma_free.exit.i
  %27 = load ptr, ptr %4, align 8, !tbaa !77
  tail call void %27(ptr noundef nonnull %2, ptr noundef nonnull %25) #15
  br label %pmix_tma_free.exit14.i

pmix_tma_free.exit14.i:                           ; preds = %26, %pmix_tma_free.exit.i
  %28 = getelementptr inbounds nuw i8, ptr %20, i64 16
  %29 = load ptr, ptr %28, align 8, !tbaa !261
  %.not12.i = icmp eq ptr %29, null
  br i1 %.not12.i, label %pmix_bfrops_base_tma_endpoint_destruct.exit, label %30

30:                                               ; preds = %pmix_tma_free.exit14.i
  %31 = load ptr, ptr %4, align 8, !tbaa !77
  tail call void %31(ptr noundef nonnull %2, ptr noundef nonnull %29) #15
  br label %pmix_bfrops_base_tma_endpoint_destruct.exit

pmix_bfrops_base_tma_endpoint_destruct.exit:      ; preds = %pmix_tma_free.exit14.i, %30
  %32 = add nuw i64 %.010, 1
  %exitcond.not = icmp eq i64 %32, %1
  br i1 %exitcond.not, label %._crit_edge, label %.lr.ph.split.split.split, !llvm.loop !262

pmix_tma_free.exit:                               ; preds = %19, %16, %3
  ret void
}